; Function Attrs: mustprogress nounwind uwtable
define dso_local void @_ZN5clang23serializeXRayInstrValueENS_12XRayInstrSetERN4llvm15SmallVectorImplINS1_9StringRefEEE(i32 %0, ptr noundef nonnull align 8 dereferenceable(16) %1) local_unnamed_addr #1 {
  switch i32 %0, label %11 [
    i32 15, label %3
    i32 0, label %7
  ]

3:                                                ; preds = %2
  %4 = tail call noundef i64 @_ZNK4llvm15SmallVectorBaseIjE4sizeEv(ptr noundef nonnull align 8 dereferenceable(16) %1) #4
  %5 = add i64 %4, 1
  %6 = tail call noundef i64 @_ZNK4llvm15SmallVectorBaseIjE8capacityEv(ptr noundef nonnull align 8 dereferenceable(16) %1) #4
  %.not.i.i.i = icmp ugt i64 %5, %6
  br i1 %.not.i.i.i, label %.sink.split.sink.split, label %.sink.split

7:                                                ; preds = %2
  %8 = tail call noundef i64 @_ZNK4llvm15SmallVectorBaseIjE4sizeEv(ptr noundef nonnull align 8 dereferenceable(16) %1) #4
  %9 = add i64 %8, 1
  %10 = tail call noundef i64 @_ZNK4llvm15SmallVectorBaseIjE8capacityEv(ptr noundef nonnull align 8 dereferenceable(16) %1) #4
  %.not.i.i.i7 = icmp ugt i64 %9, %10
  br i1 %.not.i.i.i7, label %.sink.split.sink.split, label %.sink.split

11:                                               ; preds = %2
  %12 = and i32 %0, 4
  %.not = icmp eq i32 %12, 0
  br i1 %.not, label %24, label %13

13:                                               ; preds = %11
  %14 = tail call noundef i64 @_ZNK4llvm15SmallVectorBaseIjE4sizeEv(ptr noundef nonnull align 8 dereferenceable(16) %1) #4
  %15 = add i64 %14, 1
  %16 = tail call noundef i64 @_ZNK4llvm15SmallVectorBaseIjE8capacityEv(ptr noundef nonnull align 8 dereferenceable(16) %1) #4
  %.not.i.i.i10 = icmp ugt i64 %15, %16
  br i1 %.not.i.i.i10, label %17, label %_ZN4llvm23SmallVectorTemplateBaseINS_9StringRefELb1EE9push_backES1_.exit12

17:                                               ; preds = %13
  %18 = getelementptr inbounds i8, ptr %1, i64 16
  tail call void @_ZN4llvm15SmallVectorBaseIjE8grow_podEPvmm(ptr noundef nonnull align 8 dereferenceable(16) %1, ptr noundef nonnull %18, i64 noundef %15, i64 noundef 16) #4
  br label %_ZN4llvm23SmallVectorTemplateBaseINS_9StringRefELb1EE9push_backES1_.exit12

_ZN4llvm23SmallVectorTemplateBaseINS_9StringRefELb1EE9push_backES1_.exit12: ; preds = %13, %17
  %19 = load ptr, ptr %1, align 8
  %20 = tail call noundef i64 @_ZNK4llvm15SmallVectorBaseIjE4sizeEv(ptr noundef nonnull align 8 dereferenceable(16) %1) #4
  %21 = getelementptr inbounds %"class.llvm::StringRef", ptr %19, i64 %20
  store ptr @.str.1, ptr %21, align 1
  %.sroa.2.0..sroa_idx.i11 = getelementptr inbounds i8, ptr %21, i64 8
  store i64 6, ptr %.sroa.2.0..sroa_idx.i11, align 1
  %22 = tail call noundef i64 @_ZNK4llvm15SmallVectorBaseIjE4sizeEv(ptr noundef nonnull align 8 dereferenceable(16) %1) #4
  %23 = add i64 %22, 1
  tail call void @_ZN4llvm15SmallVectorBaseIjE8set_sizeEm(ptr noundef nonnull align 8 dereferenceable(16) %1, i64 noundef %23) #4
  br label %24

24:                                               ; preds = %_ZN4llvm23SmallVectorTemplateBaseINS_9StringRefELb1EE9push_backES1_.exit12, %11
  %25 = and i32 %0, 8
  %.not43 = icmp eq i32 %25, 0
  br i1 %.not43, label %37, label %26

26:                                               ; preds = %24
  %27 = tail call noundef i64 @_ZNK4llvm15SmallVectorBaseIjE4sizeEv(ptr noundef nonnull align 8 dereferenceable(16) %1) #4
  %28 = add i64 %27, 1
  %29 = tail call noundef i64 @_ZNK4llvm15SmallVectorBaseIjE8capacityEv(ptr noundef nonnull align 8 dereferenceable(16) %1) #4
  %.not.i.i.i13 = icmp ugt i64 %28, %29
  br i1 %.not.i.i.i13, label %30, label %_ZN4llvm23SmallVectorTemplateBaseINS_9StringRefELb1EE9push_backES1_.exit15

30:                                               ; preds = %26
  %31 = getelementptr inbounds i8, ptr %1, i64 16
  tail call void @_ZN4llvm15SmallVectorBaseIjE8grow_podEPvmm(ptr noundef nonnull align 8 dereferenceable(16) %1, ptr noundef nonnull %31, i64 noundef %28, i64 noundef 16) #4
  br label %_ZN4llvm23SmallVectorTemplateBaseINS_9StringRefELb1EE9push_backES1_.exit15

_ZN4llvm23SmallVectorTemplateBaseINS_9StringRefELb1EE9push_backES1_.exit15: ; preds = %26, %30
  %32 = load ptr, ptr %1, align 8
  %33 = tail call noundef i64 @_ZNK4llvm15SmallVectorBaseIjE4sizeEv(ptr noundef nonnull align 8 dereferenceable(16) %1) #4
  %34 = getelementptr inbounds %"class.llvm::StringRef", ptr %32, i64 %33
  store ptr @.str.5, ptr %34, align 1
  %.sroa.2.0..sroa_idx.i14 = getelementptr inbounds i8, ptr %34, i64 8
  store i64 5, ptr %.sroa.2.0..sroa_idx.i14, align 1
  %35 = tail call noundef i64 @_ZNK4llvm15SmallVectorBaseIjE4sizeEv(ptr noundef nonnull align 8 dereferenceable(16) %1) #4
  %36 = add i64 %35, 1
  tail call void @_ZN4llvm15SmallVectorBaseIjE8set_sizeEm(ptr noundef nonnull align 8 dereferenceable(16) %1, i64 noundef %36) #4
  br label %37

37:                                               ; preds = %_ZN4llvm23SmallVectorTemplateBaseINS_9StringRefELb1EE9push_backES1_.exit15, %24
  %38 = and i32 %0, 1
  %.not44 = icmp eq i32 %38, 0
  %39 = and i32 %0, 2
  %.not45 = icmp eq i32 %39, 0
  br i1 %.not44, label %44, label %40

40:                                               ; preds = %37
  %41 = tail call noundef i64 @_ZNK4llvm15SmallVectorBaseIjE4sizeEv(ptr noundef nonnull align 8 dereferenceable(16) %1) #4
  %42 = add i64 %41, 1
  %43 = tail call noundef i64 @_ZNK4llvm15SmallVectorBaseIjE8capacityEv(ptr noundef nonnull align 8 dereferenceable(16) %1) #4
  %.not.i.i.i19 = icmp ugt i64 %42, %43
  %.str.3..str.2 = select i1 %.not45, ptr @.str.3, ptr @.str.2
  %. = select i1 %.not45, i64 14, i64 8
  br i1 %.not.i.i.i19, label %.sink.split.sink.split, label %.sink.split

44:                                               ; preds = %37
  br i1 %.not45, label %55, label %45

45:                                               ; preds = %44
  %46 = tail call noundef i64 @_ZNK4llvm15SmallVectorBaseIjE4sizeEv(ptr noundef nonnull align 8 dereferenceable(16) %1) #4
  %47 = add i64 %46, 1
  %48 = tail call noundef i64 @_ZNK4llvm15SmallVectorBaseIjE8capacityEv(ptr noundef nonnull align 8 dereferenceable(16) %1) #4
  %.not.i.i.i22 = icmp ugt i64 %47, %48
  br i1 %.not.i.i.i22, label %.sink.split.sink.split, label %.sink.split

.sink.split.sink.split:                           ; preds = %40, %45, %7, %3
  %.sink53 = phi i64 [ %5, %3 ], [ %9, %7 ], [ %47, %45 ], [ %42, %40 ]
  %.str.3.sink.ph = phi ptr [ @.str, %3 ], [ @.str.6, %7 ], [ @.str.4, %45 ], [ %.str.3..str.2, %40 ]
  %.sink.ph = phi i64 [ 3, %3 ], [ 4, %7 ], [ 13, %45 ], [ %., %40 ]
  %49 = getelementptr inbounds i8, ptr %1, i64 16
  tail call void @_ZN4llvm15SmallVectorBaseIjE8grow_podEPvmm(ptr noundef nonnull align 8 dereferenceable(16) %1, ptr noundef nonnull %49, i64 noundef %.sink53, i64 noundef 16) #4
  br label %.sink.split

.sink.split:                                      ; preds = %40, %.sink.split.sink.split, %45, %7, %3
  %.str.3.sink = phi ptr [ @.str, %3 ], [ @.str.6, %7 ], [ @.str.4, %45 ], [ %.str.3.sink.ph, %.sink.split.sink.split ], [ %.str.3..str.2, %40 ]
  %.sink = phi i64 [ 3, %3 ], [ 4, %7 ], [ 13, %45 ], [ %.sink.ph, %.sink.split.sink.split ], [ %., %40 ]
  %50 = load ptr, ptr %1, align 8
  %51 = tail call noundef i64 @_ZNK4llvm15SmallVectorBaseIjE4sizeEv(ptr noundef nonnull align 8 dereferenceable(16) %1) #4
  %52 = getelementptr inbounds %"class.llvm::StringRef", ptr %50, i64 %51
  store ptr %.str.3.sink, ptr %52, align 1
  %.sroa.2.0..sroa_idx.i20 = getelementptr inbounds i8, ptr %52, i64 8
  store i64 %.sink, ptr %.sroa.2.0..sroa_idx.i20, align 1
  %53 = tail call noundef i64 @_ZNK4llvm15SmallVectorBaseIjE4sizeEv(ptr noundef nonnull align 8 dereferenceable(16) %1) #4
  %54 = add i64 %53, 1
  tail call void @_ZN4llvm15SmallVectorBaseIjE8set_sizeEm(ptr noundef nonnull align 8 dereferenceable(16) %1, i64 noundef %54) #4
  br label %55

55:                                               ; preds = %.sink.split, %44
  ret void
}